target datalayout = "e-m:e-p270:32:32-p271:32:32-p272:64:64-i64:64-i128:128-f80:128-n8:16:32:64-S128"
target triple = "x86_64-pc-linux-gnu"

%"class.sls::bv_lookahead" = type { %class.bv_util, ptr, ptr, ptr, %"struct.sls::bv_lookahead::config", %"struct.sls::bv_lookahead::stats", %"class.sls::bvect", %"class.sls::bvect", %class.ptr_vector, %class.svector.1, %class.vector.3, %class.obj_mark, double, double, %"class.sls::bvect", ptr, ptr, %class.ptr_vector, %class.vector.4, %class.obj_mark, i32, %class.tracked_uint_set, i32, i32 }
%class.bv_util = type { %class.bv_recognizers, ptr, ptr }
%class.bv_recognizers = type { i32 }
%"struct.sls::bv_lookahead::config" = type <{ i8, [7 x i8], double, i32, i32, i8, i8, i8, i8, i32, i32, i32, i32, i8, [3 x i8], i32, i32, i32, i8, [3 x i8], double, double, i8, [7 x i8], double, i8, i8, i8, [5 x i8] }>
%"struct.sls::bv_lookahead::stats" = type { i32, i32, i32, i32, i32, i32 }
%class.svector.1 = type { %class.vector.2 }
%class.vector.2 = type { ptr }
%class.vector.3 = type { ptr }
%"class.sls::bvect" = type <{ %class.svector, i32, i32, i32, [4 x i8] }>
%class.svector = type { %class.vector }
%class.vector = type { ptr }
%class.ptr_vector = type { %class.vector.0 }
%class.vector.0 = type { ptr }
%class.vector.4 = type { ptr }
%class.obj_mark = type { [8 x i8], %class.bit_vector }
%class.bit_vector = type { i32, i32, ptr }
%class.tracked_uint_set = type { %class.svector.5, %class.svector }
%class.svector.5 = type { %class.vector.6 }
%class.vector.6 = type { ptr }
%"class.sls::bv_eval" = type <{ ptr, ptr, ptr, %"class.sls::bv_lookahead", %class.bv_util, %"class.sls::bv_fixed", [8 x i8], %class.ptr_vector, %class.random_gen, %"struct.sls::bv_eval::config", %class.svector.7, i32, i32, %class.svector.9, %class.svector.11, %class.scoped_ptr_vector, %"class.sls::bvect", %"class.sls::bvect", %"class.sls::bvect", %"class.sls::bvect", %"class.sls::bvect", %"class.sls::bvect", %"class.sls::bvect", %"class.sls::bvect", %"class.sls::bvect", %"class.sls::bvect", %"class.sls::bvect", %"class.sls::bvect", %"class.sls::bvect", i8, [7 x i8] }>
%"class.sls::bv_fixed" = type { ptr, ptr, ptr, ptr, ptr }
%class.random_gen = type { i32 }
%"struct.sls::bv_eval::config" = type { i32 }
%class.svector.7 = type { %class.vector.8 }
%class.vector.8 = type { ptr }
%class.svector.9 = type { %class.vector.10 }
%class.vector.10 = type { ptr }
%class.svector.11 = type { %class.vector.12 }
%class.vector.12 = type { ptr }
%class.scoped_ptr_vector = type { %class.ptr_vector.13 }
%class.ptr_vector.13 = type { %class.vector.14 }
%class.vector.14 = type { ptr }

; Function Attrs: mustprogress nounwind uwtable
define linkonce_odr hidden void @_ZN6vectorISt4pairIj5lboolELb0EjE5resetEv(ptr noundef nonnull align 8 dereferenceable(8) %0) #6 comdat align 2 {
  %2 = alloca ptr, align 8
  store ptr %0, ptr %2, align 8, !tbaa !386
  %3 = load ptr, ptr %2, align 8
  %4 = getelementptr inbounds nuw %class.vector.12, ptr %3, i32 0, i32 0
  %5 = load ptr, ptr %4, align 8, !tbaa !388
  %6 = icmp ne ptr %5, null
  br i1 %6, label %7, label %11

7:                                                ; preds = %1
  %8 = getelementptr inbounds nuw %class.vector.12, ptr %3, i32 0, i32 0
  %9 = load ptr, ptr %8, align 8, !tbaa !388
  %10 = getelementptr inbounds i32, ptr %9, i64 -1
  store i32 0, ptr %10, align 4, !tbaa !185
  br label %11

11:                                               ; preds = %7, %1
  ret void
}

; Function Attrs: mustprogress nounwind uwtable
define linkonce_odr hidden noundef i32 @_ZNK6vectorIP4exprLb0EjE4sizeEv(ptr noundef nonnull align 8 dereferenceable(8) %0) #6 comdat align 2 {
  %2 = alloca i32, align 4
  %3 = alloca ptr, align 8
  store ptr %0, ptr %3, align 8, !tbaa !128
  %4 = load ptr, ptr %3, align 8
  %5 = getelementptr inbounds nuw %class.vector.0, ptr %4, i32 0, i32 0
  %6 = load ptr, ptr %5, align 8, !tbaa !213
  %7 = icmp eq ptr %6, null
  br i1 %7, label %8, label %9

8:                                                ; preds = %1
  store i32 0, ptr %2, align 4
  br label %14

9:                                                ; preds = %1
  %10 = getelementptr inbounds nuw %class.vector.0, ptr %4, i32 0, i32 0
  %11 = load ptr, ptr %10, align 8, !tbaa !213
  %12 = getelementptr inbounds i32, ptr %11, i64 -1
  %13 = load i32, ptr %12, align 4, !tbaa !185
  store i32 %13, ptr %2, align 4
  br label %14

14:                                               ; preds = %9, %8
  %15 = load i32, ptr %2, align 4
  ret i32 %15
}

; Function Attrs: mustprogress uwtable
define linkonce_odr hidden void @_ZN3sls7bv_eval18commit_bool_valuesEv(ptr noundef nonnull align 8 dereferenceable(865) %0) #4 comdat align 2 {
  %2 = alloca ptr, align 8
  store ptr %0, ptr %2, align 8, !tbaa !8
  %3 = load ptr, ptr %2, align 8
  %4 = getelementptr inbounds nuw %"class.sls::bv_eval", ptr %3, i32 0, i32 14
  call void @_ZN6vectorISt4pairIj5lboolELb0EjE5resetEv(ptr noundef nonnull align 8 dereferenceable(8) %4)
  ret void
}

; Function Attrs: inlinehint mustprogress nounwind uwtable
define linkonce_odr hidden noundef ptr @_Z6to_appP3ast(ptr noundef %0) #5 comdat {
  %2 = alloca ptr, align 8
  store ptr %0, ptr %2, align 8, !tbaa !222
  %3 = load ptr, ptr %2, align 8, !tbaa !222
  ret ptr %3
}

; Function Attrs: mustprogress uwtable
define linkonce_odr hidden noundef zeroext i1 @_ZNK14bv_recognizers5is_bvEPK4expr(ptr noundef nonnull align 4 dereferenceable(4) %0, ptr noundef %1) #4 comdat align 2 {
  %3 = alloca ptr, align 8
  %4 = alloca ptr, align 8
  store ptr %0, ptr %3, align 8, !tbaa !220
  store ptr %1, ptr %4, align 8, !tbaa !173
  %5 = load ptr, ptr %3, align 8
  %6 = load ptr, ptr %4, align 8, !tbaa !173
  %7 = call noundef ptr @_ZNK4expr8get_sortEv(ptr noundef nonnull align 4 dereferenceable(16) %6)
  %8 = call noundef zeroext i1 @_ZNK14bv_recognizers10is_bv_sortEPK4sort(ptr noundef nonnull align 4 dereferenceable(4) %5, ptr noundef %7)
  ret i1 %8
}

; Function Attrs: mustprogress nounwind uwtable
define linkonce_odr hidden noundef ptr @_ZNK6vectorIP4exprLb0EjE3endEv(ptr noundef nonnull align 8 dereferenceable(8) %0) #6 comdat align 2 {
  %2 = alloca ptr, align 8
  store ptr %0, ptr %2, align 8, !tbaa !128
  %3 = load ptr, ptr %2, align 8
  %4 = getelementptr inbounds nuw %class.vector.0, ptr %3, i32 0, i32 0
  %5 = load ptr, ptr %4, align 8, !tbaa !213
  %6 = call noundef i32 @_ZNK6vectorIP4exprLb0EjE4sizeEv(ptr noundef nonnull align 8 dereferenceable(8) %3)
  %7 = zext i32 %6 to i64
  %8 = getelementptr inbounds nuw ptr, ptr %5, i64 %7
  ret ptr %8
}

; Function Attrs: mustprogress nounwind uwtable
define linkonce_odr hidden noundef ptr @_ZNK6vectorIP4exprLb0EjE5beginEv(ptr noundef nonnull align 8 dereferenceable(8) %0) #6 comdat align 2 {
  %2 = alloca ptr, align 8
  store ptr %0, ptr %2, align 8, !tbaa !128
  %3 = load ptr, ptr %2, align 8
  %4 = getelementptr inbounds nuw %class.vector.0, ptr %3, i32 0, i32 0
  %5 = load ptr, ptr %4, align 8, !tbaa !213
  ret ptr %5
}

; Function Attrs: mustprogress uwtable
define hidden void @_ZN3sls12bv_lookahead22initialize_bool_valuesEv(ptr noundef nonnull align 8 dereferenceable(400) %0) #4 align 2 {
  %2 = alloca ptr, align 8
  %3 = alloca ptr, align 8
  %4 = alloca ptr, align 8
  %5 = alloca ptr, align 8
  %6 = alloca ptr, align 8
  %7 = alloca ptr, align 8
  %8 = alloca i8, align 1
  store ptr %0, ptr %2, align 8, !tbaa !3
  %9 = load ptr, ptr %2, align 8
  %10 = getelementptr inbounds nuw %"class.sls::bv_lookahead", ptr %9, i32 0, i32 1
  %11 = load ptr, ptr %10, align 8, !tbaa !140
  call void @_ZN3sls7bv_eval19restore_bool_valuesEj(ptr noundef nonnull align 8 dereferenceable(865) %11, i32 noundef 0)
  call void @llvm.lifetime.start.p0(i64 8, ptr %3) #3
  %12 = getelementptr inbounds nuw %"class.sls::bv_lookahead", ptr %9, i32 0, i32 2
  %13 = load ptr, ptr %12, align 8, !tbaa !136
  %14 = call noundef nonnull align 8 dereferenceable(8) ptr @_ZN3sls7context8subtermsEv(ptr noundef nonnull align 8 dereferenceable(321) %13)
  store ptr %14, ptr %3, align 8, !tbaa !112
  call void @llvm.lifetime.start.p0(i64 8, ptr %4) #3
  %15 = load ptr, ptr %3, align 8, !tbaa !112
  %16 = call noundef ptr @_ZNK6vectorIP4exprLb0EjE5beginEv(ptr noundef nonnull align 8 dereferenceable(8) %15)
  store ptr %16, ptr %4, align 8, !tbaa !172
  call void @llvm.lifetime.start.p0(i64 8, ptr %5) #3
  %17 = load ptr, ptr %3, align 8, !tbaa !112
  %18 = call noundef ptr @_ZNK6vectorIP4exprLb0EjE3endEv(ptr noundef nonnull align 8 dereferenceable(8) %17)
  store ptr %18, ptr %5, align 8, !tbaa !172
  br label %19

19:                                               ; preds = %55, %1
  %20 = load ptr, ptr %4, align 8, !tbaa !172
  %21 = load ptr, ptr %5, align 8, !tbaa !172
  %22 = icmp ne ptr %20, %21
  br i1 %22, label %24, label %23

23:                                               ; preds = %19
  call void @llvm.lifetime.end.p0(i64 8, ptr %5) #3
  call void @llvm.lifetime.end.p0(i64 8, ptr %4) #3
  call void @llvm.lifetime.end.p0(i64 8, ptr %3) #3
  br label %58

24:                                               ; preds = %19
  call void @llvm.lifetime.start.p0(i64 8, ptr %6) #3
  %25 = load ptr, ptr %4, align 8, !tbaa !172
  %26 = load ptr, ptr %25, align 8, !tbaa !173
  store ptr %26, ptr %6, align 8, !tbaa !173
  %27 = getelementptr inbounds nuw %"class.sls::bv_lookahead", ptr %9, i32 0, i32 0
  %28 = load ptr, ptr %6, align 8, !tbaa !173
  %29 = call noundef zeroext i1 @_ZNK14bv_recognizers5is_bvEPK4expr(ptr noundef nonnull align 4 dereferenceable(4) %27, ptr noundef %28)
  br i1 %29, label %30, label %37

30:                                               ; preds = %24
  call void @llvm.lifetime.start.p0(i64 8, ptr %7) #3
  %31 = getelementptr inbounds nuw %"class.sls::bv_lookahead", ptr %9, i32 0, i32 1
  %32 = load ptr, ptr %31, align 8, !tbaa !140
  %33 = load ptr, ptr %6, align 8, !tbaa !173
  %34 = call noundef ptr @_Z6to_appP3ast(ptr noundef %33)
  %35 = call noundef nonnull align 8 dereferenceable(184) ptr @_ZNK3sls7bv_eval4evalEP3app(ptr noundef nonnull align 8 dereferenceable(865) %32, ptr noundef %34)
  store ptr %35, ptr %7, align 8, !tbaa !174
  %36 = load ptr, ptr %7, align 8, !tbaa !174
  call void @_ZN3sls12bv_valuation23commit_eval_ignore_tabuEv(ptr noundef nonnull align 8 dereferenceable(184) %36)
  call void @llvm.lifetime.end.p0(i64 8, ptr %7) #3
  br label %54

37:                                               ; preds = %24
  %38 = getelementptr inbounds nuw %"class.sls::bv_lookahead", ptr %9, i32 0, i32 3
  %39 = load ptr, ptr %38, align 8, !tbaa !176
  %40 = load ptr, ptr %6, align 8, !tbaa !173
  %41 = call noundef zeroext i1 @_ZNK11ast_manager7is_boolEPK4expr(ptr noundef nonnull align 8 dereferenceable(976) %39, ptr noundef %40)
  br i1 %41, label %42, label %53

42:                                               ; preds = %37
  call void @llvm.lifetime.start.p0(i64 1, ptr %8) #3
  %43 = getelementptr inbounds nuw %"class.sls::bv_lookahead", ptr %9, i32 0, i32 1
  %44 = load ptr, ptr %43, align 8, !tbaa !140
  %45 = load ptr, ptr %6, align 8, !tbaa !173
  %46 = call noundef zeroext i1 @_ZNK3sls7bv_eval5bval1EP4expr(ptr noundef nonnull align 8 dereferenceable(865) %44, ptr noundef %45)
  %47 = zext i1 %46 to i8
  store i8 %47, ptr %8, align 1, !tbaa !141
  %48 = getelementptr inbounds nuw %"class.sls::bv_lookahead", ptr %9, i32 0, i32 1
  %49 = load ptr, ptr %48, align 8, !tbaa !140
  %50 = load ptr, ptr %6, align 8, !tbaa !173
  %51 = load i8, ptr %8, align 1, !tbaa !141, !range !138, !noundef !139
  %52 = trunc i8 %51 to i1
  call void @_ZN3sls7bv_eval21set_bool_value_no_logEP4exprb(ptr noundef nonnull align 8 dereferenceable(865) %49, ptr noundef %50, i1 noundef zeroext %52)
  call void @llvm.lifetime.end.p0(i64 1, ptr %8) #3
  br label %53

53:                                               ; preds = %42, %37
  br label %54

54:                                               ; preds = %53, %30
  call void @llvm.lifetime.end.p0(i64 8, ptr %6) #3
  br label %55

55:                                               ; preds = %54
  %56 = load ptr, ptr %4, align 8, !tbaa !172
  %57 = getelementptr inbounds nuw ptr, ptr %56, i32 1
  store ptr %57, ptr %4, align 8, !tbaa !172
  br label %19

58:                                               ; preds = %23
  %59 = getelementptr inbounds nuw %"class.sls::bv_lookahead", ptr %9, i32 0, i32 1
  %60 = load ptr, ptr %59, align 8, !tbaa !140
  call void @_ZN3sls7bv_eval18commit_bool_valuesEv(ptr noundef nonnull align 8 dereferenceable(865) %60)
  ret void
}