; Function Attrs: mustprogress uwtable
define hidden void @_ZN3sls12bv_lookahead22initialize_bool_valuesEv(ptr noundef nonnull align 8 dereferenceable(400) %0) local_unnamed_addr #3 align 2 {
  %2 = getelementptr inbounds nuw i8, ptr %0, i64 24
  %3 = load ptr, ptr %2, align 8, !tbaa !96
  tail call void @_ZN3sls7bv_eval19restore_bool_valuesEj(ptr noundef nonnull align 8 dereferenceable(865) %3, i32 noundef 0)
  %4 = getelementptr inbounds nuw i8, ptr %0, i64 32
  %5 = load ptr, ptr %4, align 8, !tbaa !92
  %6 = tail call noundef nonnull align 8 dereferenceable(8) ptr @_ZN3sls7context8subtermsEv(ptr noundef nonnull align 8 dereferenceable(321) %5)
  %7 = load ptr, ptr %6, align 8, !tbaa !132
  %8 = icmp eq ptr %7, null
  br i1 %8, label %._crit_edge, label %_ZNK6vectorIP4exprLb0EjE3endEv.exit

_ZNK6vectorIP4exprLb0EjE3endEv.exit:              ; preds = %1
  %9 = getelementptr inbounds i8, ptr %7, i64 -4
  %10 = load i32, ptr %9, align 4, !tbaa !133
  %11 = zext i32 %10 to i64
  %12 = getelementptr inbounds nuw ptr, ptr %7, i64 %11
  %.not13 = icmp eq i32 %10, 0
  br i1 %.not13, label %._crit_edge, label %.lr.ph

.lr.ph:                                           ; preds = %_ZNK6vectorIP4exprLb0EjE3endEv.exit
  %13 = getelementptr inbounds nuw i8, ptr %0, i64 40
  br label %19

._crit_edge:                                      ; preds = %33, %1, %_ZNK6vectorIP4exprLb0EjE3endEv.exit
  %14 = load ptr, ptr %2, align 8, !tbaa !96
  %15 = getelementptr inbounds nuw i8, ptr %14, i64 536
  %16 = load ptr, ptr %15, align 8, !tbaa !165
  %.not.i.i = icmp eq ptr %16, null
  br i1 %.not.i.i, label %_ZN3sls7bv_eval18commit_bool_valuesEv.exit, label %17

17:                                               ; preds = %._crit_edge
  %18 = getelementptr inbounds i8, ptr %16, i64 -4
  store i32 0, ptr %18, align 4, !tbaa !133
  br label %_ZN3sls7bv_eval18commit_bool_valuesEv.exit

_ZN3sls7bv_eval18commit_bool_valuesEv.exit:       ; preds = %._crit_edge, %17
  ret void

19:                                               ; preds = %.lr.ph, %33
  %.014 = phi ptr [ %7, %.lr.ph ], [ %34, %33 ]
  %20 = load ptr, ptr %.014, align 8, !tbaa !134
  %21 = tail call noundef ptr @_ZNK4expr8get_sortEv(ptr noundef nonnull align 4 dereferenceable(16) %20)
  %22 = tail call noundef zeroext i1 @_ZNK14bv_recognizers10is_bv_sortEPK4sort(ptr noundef nonnull align 4 dereferenceable(4) %0, ptr noundef %21)
  br i1 %22, label %23, label %26

23:                                               ; preds = %19
  %24 = load ptr, ptr %2, align 8, !tbaa !96
  %25 = tail call noundef nonnull align 8 dereferenceable(184) ptr @_ZNK3sls7bv_eval4evalEP3app(ptr noundef nonnull align 8 dereferenceable(865) %24, ptr noundef nonnull %20)
  tail call void @_ZN3sls12bv_valuation23commit_eval_ignore_tabuEv(ptr noundef nonnull align 8 dereferenceable(184) %25)
  br label %33

26:                                               ; preds = %19
  %27 = load ptr, ptr %13, align 8, !tbaa !166
  %28 = tail call noundef zeroext i1 @_ZNK11ast_manager7is_boolEPK4expr(ptr noundef nonnull align 8 dereferenceable(976) %27, ptr noundef nonnull %20)
  br i1 %28, label %29, label %33

29:                                               ; preds = %26
  %30 = load ptr, ptr %2, align 8, !tbaa !96
  %31 = tail call noundef zeroext i1 @_ZNK3sls7bv_eval5bval1EP4expr(ptr noundef nonnull align 8 dereferenceable(865) %30, ptr noundef nonnull %20)
  %32 = load ptr, ptr %2, align 8, !tbaa !96
  tail call void @_ZN3sls7bv_eval21set_bool_value_no_logEP4exprb(ptr noundef nonnull align 8 dereferenceable(865) %32, ptr noundef nonnull %20, i1 noundef zeroext %31)
  br label %33

33:                                               ; preds = %26, %29, %23
  %34 = getelementptr inbounds nuw i8, ptr %.014, i64 8
  %.not = icmp eq ptr %34, %12
  br i1 %.not, label %._crit_edge, label %19
}